(dp1
S'hwj'
p2
(i__main__
Person
p3
(dp4
S'phone'
p5
S'3333333'
p6
sS'address'
p7
S'gz,cn'
p8
sS'email'
p9
S'huweijun1206@gmail.com'
p10
sS'name'
p11
g2
sbsS'airgis'
p12
(i__main__
Person
p13
(dp14
g5
S'3453221'
p15
sg7
S'guangzhou, china'
p16
sg9
S'airgis@163.com'
p17
sg11
S'airgis'
p18
sbsS'airfox'
p19
(i__main__
Person
p20
(dp21
g5
S'12345678'
p22
sg7
S'gz'
p23
sg9
S'huweijun1206%163.com'
p24
sg11
g19
sbs.